target datalayout = "e-m:e-p270:32:32-p271:32:32-p272:64:64-i64:64-i128:128-f80:128-n8:16:32:64-S128"
target triple = "x86_64-pc-linux-gnu"

%struct.mpd_t = type { i8, i64, i64, i64, i64, ptr }

@mpd_mallocfunc = hidden global ptr @malloc, align 8

; Function Attrs: inlinehint nounwind uwtable
define internal void @_mpd_mul_words(ptr noundef %0, ptr noundef %1, i64 noundef %2, i64 noundef %3) #6 {
  %5 = alloca ptr, align 8
  %6 = alloca ptr, align 8
  %7 = alloca i64, align 8
  %8 = alloca i64, align 8
  %9 = alloca i128, align 16
  store ptr %0, ptr %5, align 8, !tbaa !9
  store ptr %1, ptr %6, align 8, !tbaa !9
  store i64 %2, ptr %7, align 8, !tbaa !3
  store i64 %3, ptr %8, align 8, !tbaa !3
  call void @llvm.lifetime.start.p0(i64 16, ptr %9) #10
  %10 = load i64, ptr %7, align 8, !tbaa !3
  %11 = zext i64 %10 to i128
  %12 = load i64, ptr %8, align 8, !tbaa !3
  %13 = zext i64 %12 to i128
  %14 = mul i128 %11, %13
  store i128 %14, ptr %9, align 16, !tbaa !29
  %15 = load i128, ptr %9, align 16, !tbaa !29
  %16 = lshr i128 %15, 64
  %17 = trunc i128 %16 to i64
  %18 = load ptr, ptr %5, align 8, !tbaa !9
  store i64 %17, ptr %18, align 8, !tbaa !3
  %19 = load i128, ptr %9, align 16, !tbaa !29
  %20 = trunc i128 %19 to i64
  %21 = load ptr, ptr %6, align 8, !tbaa !9
  store i64 %20, ptr %21, align 8, !tbaa !3
  call void @llvm.lifetime.end.p0(i64 16, ptr %9) #10
  ret void
}

; Function Attrs: inlinehint nounwind uwtable
define internal i64 @mul_size_t_overflow(i64 noundef %0, i64 noundef %1, ptr noundef %2) #6 {
  %4 = alloca i64, align 8
  %5 = alloca i64, align 8
  %6 = alloca ptr, align 8
  %7 = alloca i64, align 8
  %8 = alloca i64, align 8
  store i64 %0, ptr %4, align 8, !tbaa !3
  store i64 %1, ptr %5, align 8, !tbaa !3
  store ptr %2, ptr %6, align 8, !tbaa !9
  call void @llvm.lifetime.start.p0(i64 8, ptr %7) #10
  call void @llvm.lifetime.start.p0(i64 8, ptr %8) #10
  %9 = load i64, ptr %4, align 8, !tbaa !3
  %10 = load i64, ptr %5, align 8, !tbaa !3
  call void @_mpd_mul_words(ptr noundef %7, ptr noundef %8, i64 noundef %9, i64 noundef %10)
  %11 = load i64, ptr %7, align 8, !tbaa !3
  %12 = load ptr, ptr %6, align 8, !tbaa !9
  store i64 %11, ptr %12, align 8, !tbaa !3
  %13 = load i64, ptr %8, align 8, !tbaa !3
  call void @llvm.lifetime.end.p0(i64 8, ptr %8) #10
  call void @llvm.lifetime.end.p0(i64 8, ptr %7) #10
  ret i64 %13
}

; Function Attrs: nounwind uwtable
define hidden ptr @mpd_alloc(i64 noundef %0, i64 noundef %1) #4 {
  %3 = alloca ptr, align 8
  %4 = alloca i64, align 8
  %5 = alloca i64, align 8
  %6 = alloca i64, align 8
  %7 = alloca i64, align 8
  %8 = alloca i32, align 4
  store i64 %0, ptr %4, align 8, !tbaa !3
  store i64 %1, ptr %5, align 8, !tbaa !3
  call void @llvm.lifetime.start.p0(i64 8, ptr %6) #10
  call void @llvm.lifetime.start.p0(i64 8, ptr %7) #10
  %9 = load i64, ptr %4, align 8, !tbaa !3
  %10 = load i64, ptr %5, align 8, !tbaa !3
  %11 = call i64 @mul_size_t_overflow(i64 noundef %9, i64 noundef %10, ptr noundef %7)
  store i64 %11, ptr %6, align 8, !tbaa !3
  %12 = load i64, ptr %7, align 8, !tbaa !3
  %13 = icmp ne i64 %12, 0
  br i1 %13, label %14, label %15

14:                                               ; preds = %2
  store ptr null, ptr %3, align 8
  store i32 1, ptr %8, align 4
  br label %19

15:                                               ; preds = %2
  %16 = load ptr, ptr @mpd_mallocfunc, align 8, !tbaa !7
  %17 = load i64, ptr %6, align 8, !tbaa !3
  %18 = call ptr %16(i64 noundef %17)
  store ptr %18, ptr %3, align 8
  store i32 1, ptr %8, align 4
  br label %19

19:                                               ; preds = %15, %14
  call void @llvm.lifetime.end.p0(i64 8, ptr %7) #10
  call void @llvm.lifetime.end.p0(i64 8, ptr %6) #10
  %20 = load ptr, ptr %3, align 8
  ret ptr %20
}

; Function Attrs: nounwind uwtable
define hidden i32 @mpd_switch_to_dyn(ptr noundef %0, i64 noundef %1, ptr noundef %2) #4 {
  %4 = alloca i32, align 4
  %5 = alloca ptr, align 8
  %6 = alloca i64, align 8
  %7 = alloca ptr, align 8
  %8 = alloca ptr, align 8
  %9 = alloca i32, align 4
  store ptr %0, ptr %5, align 8, !tbaa !14
  store i64 %1, ptr %6, align 8, !tbaa !3
  store ptr %2, ptr %7, align 8, !tbaa !25
  call void @llvm.lifetime.start.p0(i64 8, ptr %8) #10
  %10 = load ptr, ptr %5, align 8, !tbaa !14
  %11 = getelementptr inbounds nuw %struct.mpd_t, ptr %10, i32 0, i32 5
  %12 = load ptr, ptr %11, align 8, !tbaa !16
  store ptr %12, ptr %8, align 8, !tbaa !9
  %13 = load i64, ptr %6, align 8, !tbaa !3
  %14 = call ptr @mpd_alloc(i64 noundef %13, i64 noundef 8)
  %15 = load ptr, ptr %5, align 8, !tbaa !14
  %16 = getelementptr inbounds nuw %struct.mpd_t, ptr %15, i32 0, i32 5
  store ptr %14, ptr %16, align 8, !tbaa !16
  %17 = load ptr, ptr %5, align 8, !tbaa !14
  %18 = getelementptr inbounds nuw %struct.mpd_t, ptr %17, i32 0, i32 5
  %19 = load ptr, ptr %18, align 8, !tbaa !16
  %20 = icmp eq ptr %19, null
  br i1 %20, label %21, label %36

21:                                               ; preds = %3
  %22 = load ptr, ptr %8, align 8, !tbaa !9
  %23 = load ptr, ptr %5, align 8, !tbaa !14
  %24 = getelementptr inbounds nuw %struct.mpd_t, ptr %23, i32 0, i32 5
  store ptr %22, ptr %24, align 8, !tbaa !16
  %25 = load ptr, ptr %5, align 8, !tbaa !14
  call void @mpd_set_qnan(ptr noundef %25)
  %26 = load ptr, ptr %5, align 8, !tbaa !14
  call void @mpd_set_positive(ptr noundef %26)
  %27 = load ptr, ptr %5, align 8, !tbaa !14
  %28 = getelementptr inbounds nuw %struct.mpd_t, ptr %27, i32 0, i32 3
  store i64 0, ptr %28, align 8, !tbaa !21
  %29 = load ptr, ptr %5, align 8, !tbaa !14
  %30 = getelementptr inbounds nuw %struct.mpd_t, ptr %29, i32 0, i32 2
  store i64 0, ptr %30, align 8, !tbaa !20
  %31 = load ptr, ptr %5, align 8, !tbaa !14
  %32 = getelementptr inbounds nuw %struct.mpd_t, ptr %31, i32 0, i32 1
  store i64 0, ptr %32, align 8, !tbaa !19
  %33 = load ptr, ptr %7, align 8, !tbaa !25
  %34 = load i32, ptr %33, align 4, !tbaa !27
  %35 = or i32 %34, 512
  store i32 %35, ptr %33, align 4, !tbaa !27
  store i32 0, ptr %4, align 4
  store i32 1, ptr %9, align 4
  br label %49

36:                                               ; preds = %3
  %37 = load ptr, ptr %5, align 8, !tbaa !14
  %38 = getelementptr inbounds nuw %struct.mpd_t, ptr %37, i32 0, i32 5
  %39 = load ptr, ptr %38, align 8, !tbaa !16
  %40 = load ptr, ptr %8, align 8, !tbaa !9
  %41 = load ptr, ptr %5, align 8, !tbaa !14
  %42 = getelementptr inbounds nuw %struct.mpd_t, ptr %41, i32 0, i32 4
  %43 = load i64, ptr %42, align 8, !tbaa !22
  %44 = mul i64 %43, 8
  call void @llvm.memcpy.p0.p0.i64(ptr align 8 %39, ptr align 8 %40, i64 %44, i1 false)
  %45 = load i64, ptr %6, align 8, !tbaa !3
  %46 = load ptr, ptr %5, align 8, !tbaa !14
  %47 = getelementptr inbounds nuw %struct.mpd_t, ptr %46, i32 0, i32 4
  store i64 %45, ptr %47, align 8, !tbaa !22
  %48 = load ptr, ptr %5, align 8, !tbaa !14
  call void @mpd_set_dynamic_data(ptr noundef %48)
  store i32 1, ptr %4, align 4
  store i32 1, ptr %9, align 4
  br label %49

49:                                               ; preds = %36, %21
  call void @llvm.lifetime.end.p0(i64 8, ptr %8) #10
  %50 = load i32, ptr %4, align 4
  ret i32 %50
}