; Function Attrs: nounwind uwtable
define hidden range(i32 0, 2) i32 @mpd_switch_to_dyn(ptr noundef %0, i64 noundef %1, ptr noundef captures(none) %2) local_unnamed_addr #4 {
  %4 = getelementptr inbounds nuw i8, ptr %0, i64 40
  %5 = load ptr, ptr %4, align 8, !tbaa !10
  %6 = icmp ugt i64 %1, 2305843009213693951
  br i1 %6, label %mpd_alloc.exit.thread, label %mpd_alloc.exit

mpd_alloc.exit:                                   ; preds = %3
  %umul.value.i = shl nuw i64 %1, 3
  %7 = load ptr, ptr @mpd_mallocfunc, align 8, !tbaa !3
  %8 = tail call ptr %7(i64 noundef %umul.value.i) #9
  store ptr %8, ptr %4, align 8, !tbaa !10
  %9 = icmp eq ptr %8, null
  br i1 %9, label %mpd_alloc.exit.thread, label %13

mpd_alloc.exit.thread:                            ; preds = %3, %mpd_alloc.exit
  store ptr %5, ptr %4, align 8, !tbaa !10
  tail call void @mpd_set_qnan(ptr noundef nonnull %0) #9
  tail call void @mpd_set_positive(ptr noundef nonnull %0) #9
  %10 = getelementptr inbounds nuw i8, ptr %0, i64 8
  tail call void @llvm.memset.p0.i64(ptr noundef nonnull align 8 dereferenceable(24) %10, i8 0, i64 24, i1 false)
  %11 = load i32, ptr %2, align 4, !tbaa !15
  %12 = or i32 %11, 512
  store i32 %12, ptr %2, align 4, !tbaa !15
  br label %17

13:                                               ; preds = %mpd_alloc.exit
  %14 = getelementptr inbounds nuw i8, ptr %0, i64 32
  %15 = load i64, ptr %14, align 8, !tbaa !14
  %16 = shl i64 %15, 3
  tail call void @llvm.memcpy.p0.p0.i64(ptr nonnull align 8 %8, ptr align 8 %5, i64 %16, i1 false)
  store i64 %1, ptr %14, align 8, !tbaa !14
  tail call void @mpd_set_dynamic_data(ptr noundef nonnull %0) #9
  br label %17

17:                                               ; preds = %13, %mpd_alloc.exit.thread
  %.0 = phi i32 [ 0, %mpd_alloc.exit.thread ], [ 1, %13 ]
  ret i32 %.0
}